; Function Attrs: mustprogress uwtable
define dso_local void @_ZN4pbrt13ForEachThreadESt8functionIFvvEE(ptr noundef captures(none) %0) local_unnamed_addr #0 personality ptr @__gxx_personality_v0 {
  %2 = alloca %"class.std::function", align 8
  %3 = load ptr, ptr @_ZN4pbrt11ParallelJob10threadPoolE, align 8, !tbaa !122
  %.not = icmp eq ptr %3, null
  br i1 %.not, label %_ZNSt14_Function_baseD2Ev.exit, label %4

4:                                                ; preds = %1
  %5 = getelementptr inbounds nuw i8, ptr %2, i64 24
  %6 = getelementptr inbounds nuw i8, ptr %0, i64 24
  call void @llvm.memset.p0.i64(ptr noundef nonnull align 8 dereferenceable(32) %2, i8 0, i64 24, i1 false)
  %7 = load ptr, ptr %6, align 8, !tbaa !154
  store ptr %7, ptr %5, align 8, !tbaa !154
  %8 = getelementptr inbounds nuw i8, ptr %0, i64 16
  %9 = load ptr, ptr %8, align 8, !tbaa !97
  %.not.i.i.not.i = icmp eq ptr %9, null
  br i1 %.not.i.i.not.i, label %_ZNSt8functionIFvvEEC2EOS1_.exit, label %10

10:                                               ; preds = %4
  %11 = getelementptr inbounds nuw i8, ptr %2, i64 16
  call void @llvm.memcpy.p0.p0.i64(ptr noundef nonnull align 8 dereferenceable(32) %2, ptr noundef nonnull align 8 dereferenceable(32) %0, i64 16, i1 false), !tbaa.struct !141
  store ptr %9, ptr %11, align 8, !tbaa !97
  tail call void @llvm.memset.p0.i64(ptr noundef nonnull align 8 dereferenceable(16) %8, i8 0, i64 16, i1 false)
  br label %_ZNSt8functionIFvvEEC2EOS1_.exit

_ZNSt8functionIFvvEEC2EOS1_.exit:                 ; preds = %4, %10
  invoke void @_ZN4pbrt10ThreadPool13ForEachThreadESt8functionIFvvEE(ptr noundef nonnull align 8 dereferenceable(128) %3, ptr noundef nonnull %2)
          to label %12 unwind label %20

12:                                               ; preds = %_ZNSt8functionIFvvEEC2EOS1_.exit
  %13 = getelementptr inbounds nuw i8, ptr %2, i64 16
  %14 = load ptr, ptr %13, align 8, !tbaa !97
  %.not.i = icmp eq ptr %14, null
  br i1 %.not.i, label %_ZNSt14_Function_baseD2Ev.exit, label %15

15:                                               ; preds = %12
  %16 = invoke noundef zeroext i1 %14(ptr noundef nonnull align 8 dereferenceable(32) %2, ptr noundef nonnull align 8 dereferenceable(32) %2, i32 noundef 3)
          to label %_ZNSt14_Function_baseD2Ev.exit unwind label %17

17:                                               ; preds = %15
  %18 = landingpad { ptr, i32 }
          catch ptr null
  %19 = extractvalue { ptr, i32 } %18, 0
  call void @__clang_call_terminate(ptr %19) #29
  unreachable

20:                                               ; preds = %_ZNSt8functionIFvvEEC2EOS1_.exit
  %21 = landingpad { ptr, i32 }
          cleanup
  %22 = getelementptr inbounds nuw i8, ptr %2, i64 16
  %23 = load ptr, ptr %22, align 8, !tbaa !97
  %.not.i1 = icmp eq ptr %23, null
  br i1 %.not.i1, label %_ZNSt14_Function_baseD2Ev.exit2, label %24

24:                                               ; preds = %20
  %25 = invoke noundef zeroext i1 %23(ptr noundef nonnull align 8 dereferenceable(32) %2, ptr noundef nonnull align 8 dereferenceable(32) %2, i32 noundef 3)
          to label %_ZNSt14_Function_baseD2Ev.exit2 unwind label %26

26:                                               ; preds = %24
  %27 = landingpad { ptr, i32 }
          catch ptr null
  %28 = extractvalue { ptr, i32 } %27, 0
  call void @__clang_call_terminate(ptr %28) #29
  unreachable

_ZNSt14_Function_baseD2Ev.exit2:                  ; preds = %20, %24
  resume { ptr, i32 } %21

_ZNSt14_Function_baseD2Ev.exit:                   ; preds = %15, %12, %1
  ret void
}